; Function Attrs: mustprogress nofree norecurse nosync nounwind willreturn memory(argmem: read) uwtable
define ptr @lv_line_get_points_mutable(ptr nocapture noundef readonly %0) local_unnamed_addr #3 {
  %2 = getelementptr inbounds nuw i8, ptr %0, i64 76
  %3 = load i8, ptr %2, align 4
  %4 = and i8 %3, 2
  %.not = icmp eq i8 %4, 0
  br i1 %.not, label %8, label %5

5:                                                ; preds = %1
  %6 = getelementptr inbounds nuw i8, ptr %0, i64 64
  %7 = load ptr, ptr %6, align 8, !tbaa !12
  br label %8

8:                                                ; preds = %1, %5
  %.0 = phi ptr [ %7, %5 ], [ null, %1 ]
  ret ptr %.0
}